target datalayout = "e-m:e-p270:32:32-p271:32:32-p272:64:64-i64:64-i128:128-f80:128-n8:16:32:64-S128"
target triple = "x86_64-pc-linux-gnu"

%struct.udp_arg = type { i64, ptr }
%struct.RFile = type { %struct.RBasic, ptr }
%struct.RBasic = type { i64, i64 }
%struct.rb_io = type { i64, ptr, i32, i32, i32, i32, i64, ptr, %struct.rb_io_internal_buffer, %struct.rb_io_internal_buffer, i64, %struct.rb_io_encoding, ptr, %struct.rb_io_internal_buffer, ptr, i64, i32, i32, i64, i64, i64 }
%struct.rb_io_encoding = type { ptr, ptr, i32, i64 }
%struct.rb_io_internal_buffer = type <{ ptr, i32, i32, i32 }>
%struct.rb_addrinfo = type { ptr, i32 }
%struct.addrinfo = type { i32, i32, i32, i32, i32, ptr, ptr, ptr }
%union.__CONST_SOCKADDR_ARG = type { ptr }

; Function Attrs: nounwind sspstrong uwtable
define internal i64 @udp_bind_internal(i64 noundef %0) #0 {
  %2 = alloca i64, align 8
  %3 = alloca i64, align 8
  %4 = alloca ptr, align 8
  %5 = alloca ptr, align 8
  %6 = alloca ptr, align 8
  %7 = alloca %union.__CONST_SOCKADDR_ARG, align 8
  %8 = alloca i32, align 4
  store i64 %0, ptr %3, align 8, !tbaa !6
  call void @llvm.lifetime.start.p0(i64 8, ptr %4) #10
  %9 = load i64, ptr %3, align 8, !tbaa !6
  %10 = inttoptr i64 %9 to ptr
  store ptr %10, ptr %4, align 8, !tbaa !51
  call void @llvm.lifetime.start.p0(i64 8, ptr %5) #10
  call void @llvm.lifetime.start.p0(i64 8, ptr %6) #10
  %11 = load ptr, ptr %4, align 8, !tbaa !51
  %12 = getelementptr inbounds nuw %struct.udp_arg, ptr %11, i32 0, i32 0
  %13 = load i64, ptr %12, align 8, !tbaa !15
  %14 = call i64 @rb_io_taint_check(i64 noundef %13)
  %15 = inttoptr i64 %14 to ptr
  %16 = getelementptr inbounds nuw %struct.RFile, ptr %15, i32 0, i32 1
  %17 = load ptr, ptr %16, align 8, !tbaa !19
  store ptr %17, ptr %6, align 8, !tbaa !62
  call void @rb_io_check_closed(ptr noundef %17)
  %18 = load ptr, ptr %4, align 8, !tbaa !51
  %19 = getelementptr inbounds nuw %struct.udp_arg, ptr %18, i32 0, i32 1
  %20 = load ptr, ptr %19, align 8, !tbaa !18
  %21 = getelementptr inbounds nuw %struct.rb_addrinfo, ptr %20, i32 0, i32 0
  %22 = load ptr, ptr %21, align 8, !tbaa !53
  store ptr %22, ptr %5, align 8, !tbaa !56
  br label %23

23:                                               ; preds = %42, %1
  %24 = load ptr, ptr %5, align 8, !tbaa !56
  %25 = icmp ne ptr %24, null
  br i1 %25, label %26, label %46

26:                                               ; preds = %23
  %27 = load ptr, ptr %6, align 8, !tbaa !62
  %28 = getelementptr inbounds nuw %struct.rb_io, ptr %27, i32 0, i32 2
  %29 = load i32, ptr %28, align 8, !tbaa !27
  %30 = load ptr, ptr %5, align 8, !tbaa !56
  %31 = getelementptr inbounds nuw %struct.addrinfo, ptr %30, i32 0, i32 5
  %32 = load ptr, ptr %31, align 8, !tbaa !57
  store ptr %32, ptr %7, align 8, !tbaa !49
  %33 = load ptr, ptr %5, align 8, !tbaa !56
  %34 = getelementptr inbounds nuw %struct.addrinfo, ptr %33, i32 0, i32 4
  %35 = load i32, ptr %34, align 8, !tbaa !59
  %36 = getelementptr inbounds nuw %union.__CONST_SOCKADDR_ARG, ptr %7, i32 0, i32 0
  %37 = load ptr, ptr %36, align 8
  %38 = call i32 @bind(i32 noundef %29, ptr %37, i32 noundef %35) #10
  %39 = icmp slt i32 %38, 0
  br i1 %39, label %40, label %41

40:                                               ; preds = %26
  br label %42

41:                                               ; preds = %26
  store i64 20, ptr %2, align 8
  store i32 1, ptr %8, align 4
  br label %47

42:                                               ; preds = %40
  %43 = load ptr, ptr %5, align 8, !tbaa !56
  %44 = getelementptr inbounds nuw %struct.addrinfo, ptr %43, i32 0, i32 7
  %45 = load ptr, ptr %44, align 8, !tbaa !60
  store ptr %45, ptr %5, align 8, !tbaa !56
  br label %23, !llvm.loop !63

46:                                               ; preds = %23
  store i64 0, ptr %2, align 8
  store i32 1, ptr %8, align 4
  br label %47

47:                                               ; preds = %46, %41
  call void @llvm.lifetime.end.p0(i64 8, ptr %6) #10
  call void @llvm.lifetime.end.p0(i64 8, ptr %5) #10
  call void @llvm.lifetime.end.p0(i64 8, ptr %4) #10
  %48 = load i64, ptr %2, align 8
  ret i64 %48
}