; Function Attrs: nounwind sspstrong uwtable
define internal range(i64 0, 21) i64 @udp_bind_internal(i64 noundef %0) #0 {
  %2 = inttoptr i64 %0 to ptr
  %3 = load i64, ptr %2, align 8, !tbaa !12
  %4 = tail call i64 @rb_io_taint_check(i64 noundef %3) #5
  %5 = inttoptr i64 %4 to ptr
  %6 = getelementptr inbounds nuw i8, ptr %5, i64 16
  %7 = load ptr, ptr %6, align 8, !tbaa !21
  tail call void @rb_io_check_closed(ptr noundef %7) #5
  %8 = getelementptr inbounds nuw i8, ptr %2, i64 8
  %9 = load ptr, ptr %8, align 8, !tbaa !16
  %10 = getelementptr inbounds nuw i8, ptr %7, i64 16
  %.089 = load ptr, ptr %9, align 8, !tbaa !40
  %.not10 = icmp eq ptr %.089, null
  br i1 %.not10, label %._crit_edge, label %.lr.ph

11:                                               ; preds = %.lr.ph
  %12 = getelementptr inbounds nuw i8, ptr %.0811, i64 40
  %.08 = load ptr, ptr %12, align 8, !tbaa !40
  %.not = icmp eq ptr %.08, null
  br i1 %.not, label %._crit_edge, label %.lr.ph, !llvm.loop !46

.lr.ph:                                           ; preds = %1, %11
  %.0811 = phi ptr [ %.08, %11 ], [ %.089, %1 ]
  %13 = load i32, ptr %10, align 8, !tbaa !29
  %14 = getelementptr inbounds nuw i8, ptr %.0811, i64 24
  %15 = load ptr, ptr %14, align 8, !tbaa !43
  %16 = getelementptr inbounds nuw i8, ptr %.0811, i64 16
  %17 = load i32, ptr %16, align 8, !tbaa !45
  %18 = tail call i32 @bind(i32 noundef %13, ptr %15, i32 noundef %17) #5
  %19 = icmp slt i32 %18, 0
  br i1 %19, label %11, label %._crit_edge

._crit_edge:                                      ; preds = %.lr.ph, %11, %1
  %.0 = phi i64 [ 0, %1 ], [ 0, %11 ], [ 20, %.lr.ph ]
  ret i64 %.0
}